TN:
SF:/home/shreyber/LabWork3/arrayOp.cpp
FNL:0,112,129
FNA:0,2,_ZNK5Array9serializeERKNSt7__cxx1112basic_stringIcSt11char_traitsIcESaIcEEE
FNL:1,132,153
FNA:1,2,_ZN5Array11deserializeERKNSt7__cxx1112basic_stringIcSt11char_traitsIcESaIcEEE
FNL:2,15,17
FNA:2,13,_ZN5ArrayD2Ev
FNL:3,20,28
FNA:3,11,_ZN5Array6resizeEv
FNL:4,30,32
FNA:4,3,_ZNK5Array7isEmptyEv
FNL:5,34,40
FNA:5,20,_ZN5Array8pushBackERKNSt7__cxx1112basic_stringIcSt11char_traitsIcESaIcEEE
FNL:6,42,59
FNA:6,2,_ZN5Array6addInxERKNSt7__cxx1112basic_stringIcSt11char_traitsIcESaIcEEEi
FNL:7,61,72
FNA:7,2,_ZNK5Array10printArrayEv
FNL:8,74,80
FNA:8,16,_ZNK5Array6getInxB5cxx11Ei
FNL:9,8,12
FNA:9,13,_ZN5ArrayC2Ev
FNL:10,82,88
FNA:10,1,_ZN5Array9changeInxERKNSt7__cxx1112basic_stringIcSt11char_traitsIcESaIcEEEi
FNL:11,90,92
FNA:11,11,_ZNK5Array7getSizeEv
FNL:12,94,109
FNA:12,2,_ZN5Array11removeElArrB5cxx11Ei
FNF:13
FNH:13
DA:8,13
DA:9,13
DA:10,13
DA:11,26
DA:12,13
DA:15,13
DA:16,43
DA:17,13
DA:20,11
DA:21,11
DA:22,39
DA:23,25
DA:24,14
DA:26,25
DA:27,11
DA:28,11
DA:30,3
DA:31,3
DA:34,20
DA:35,20
DA:36,10
DA:38,20
DA:39,20
DA:40,20
DA:42,2
DA:43,2
DA:44,1
DA:45,1
DA:48,1
DA:49,1
DA:53,2
DA:54,1
DA:57,1
DA:58,1
DA:61,2
DA:62,2
DA:63,1
DA:64,1
DA:67,1
DA:68,3
DA:69,2
DA:71,1
DA:74,16
DA:75,16
DA:76,1
DA:77,2
DA:79,15
DA:82,1
DA:83,1
DA:84,0
DA:85,0
DA:87,1
DA:90,11
DA:91,11
DA:94,2
DA:95,2
DA:96,1
DA:97,2
DA:100,1
DA:103,2
DA:104,1
DA:107,1
DA:108,1
DA:109,1
DA:112,2
DA:113,2
DA:114,2
DA:117,2
DA:120,7
DA:121,5
DA:122,5
DA:124,5
DA:126,5
DA:128,2
DA:129,2
DA:132,2
DA:133,2
DA:134,2
DA:137,4
DA:140,2
DA:141,2
DA:142,7
DA:145,7
DA:147,5
DA:148,5
DA:149,5
DA:150,5
DA:151,5
DA:152,2
DA:153,2
LF:90
LH:88
end_of_record
TN:
SF:/home/shreyber/LabWork3/arrayOp.h
FNF:0
FNH:0
LF:0
LH:0
end_of_record
TN:
SF:/home/shreyber/LabWork3/fullBinaryTree.cpp
FNL:0,101,101
FNA:0,1,_ZNK14FullBinaryTree16printLeftToRightEv
FNL:1,103,103
FNA:1,1,_ZNK14FullBinaryTree14printDownToTopEv
FNL:2,105,105
FNA:2,4,_ZNK14FullBinaryTree9getHeightEv
FNL:3,107,113
FNA:3,2,_ZNK14FullBinaryTree15printLevelOrderEv
FNL:4,115,115
FNA:4,10,_ZNK14FullBinaryTree6existsEi
FNL:5,13,20
FNA:5,41,_ZN14FullBinaryTree10insertNodeEP7NodeFBTi
FNL:6,22,28
FNA:6,5,_ZN14FullBinaryTree10insertTreeEP7NodeFBTS1_
FNL:7,30,36
FNA:7,6,_ZNK14FullBinaryTree6isFullEP7NodeFBT
FNL:8,38,43
FNA:8,7,_ZNK14FullBinaryTree9topToDownEP7NodeFBT
FNL:9,45,50
FNA:9,7,_ZNK14FullBinaryTree11leftToRightEP7NodeFBT
FNL:10,52,57
FNA:10,7,_ZNK14FullBinaryTree9downToTopEP7NodeFBT
FNL:11,59,62
FNA:11,26,_ZNK14FullBinaryTree6heightEP7NodeFBT
FNL:12,64,72
FNA:12,8,_ZNK14FullBinaryTree10printLevelEP7NodeFBTi
FNL:13,7,7
FNA:13,9,_ZN14FullBinaryTreeC2Ev
FNL:14,74,81
FNA:14,16,_ZNK14FullBinaryTree10searchTreeEP7NodeFBTi
FNL:15,83,89
FNA:15,59,_ZN14FullBinaryTree5clearEP7NodeFBT
FNL:16,9,11
FNA:16,9,_ZN14FullBinaryTreeD2Ev
FNL:17,91,91
FNA:17,23,_ZN14FullBinaryTree6insertEi
FNL:18,93,95
FNA:18,1,_ZN14FullBinaryTree13insertSubtreeERKS_
FNL:19,97,97
FNA:19,4,_ZNK14FullBinaryTree9checkFullEv
FNL:20,99,99
FNA:20,1,_ZNK14FullBinaryTree14printTopToDownEv
FNF:21
FNH:21
DA:7,9
DA:9,9
DA:10,9
DA:11,9
DA:13,41
DA:14,41
DA:15,16
DA:16,7
DA:18,9
DA:19,16
DA:22,5
DA:23,5
DA:24,2
DA:25,2
DA:26,2
DA:27,2
DA:30,6
DA:31,6
DA:32,5
DA:33,2
DA:34,1
DA:35,1
DA:38,7
DA:39,7
DA:40,3
DA:41,3
DA:42,3
DA:45,7
DA:46,7
DA:47,3
DA:48,3
DA:49,3
DA:52,7
DA:53,7
DA:54,3
DA:55,3
DA:56,3
DA:59,26
DA:60,26
DA:61,11
DA:64,8
DA:65,8
DA:66,8
DA:67,6
DA:69,2
DA:70,2
DA:74,16
DA:75,16
DA:76,15
DA:77,6
DA:78,3
DA:80,3
DA:83,59
DA:84,59
DA:85,25
DA:86,25
DA:87,25
DA:89,59
DA:91,23
DA:93,1
DA:94,1
DA:95,1
DA:97,4
DA:99,1
DA:101,1
DA:103,1
DA:105,4
DA:107,2
DA:108,2
DA:109,6
DA:110,4
DA:112,2
DA:113,2
DA:115,10
LF:74
LH:74
end_of_record
TN:
SF:/home/shreyber/LabWork3/fullBinaryTree.h
FNL:0,9,9
FNA:0,25,_ZN7NodeFBTC2Ei
FNF:1
FNH:1
DA:9,25
LF:1
LH:1
end_of_record
TN:
SF:/home/shreyber/LabWork3/hashTables.h
FNL:0,109,118
FNA:0,2,_ZNK17ChainingHashTableINSt7__cxx1112basic_stringIcSt11char_traitsIcESaIcEEES5_E4findERKS5_RS5_
FNA:0,4,_ZNK17ChainingHashTableIiNSt7__cxx1112basic_stringIcSt11char_traitsIcESaIcEEEE4findERKiRS5_
FNL:1,120,131
FNA:1,0,_ZN17ChainingHashTableINSt7__cxx1112basic_stringIcSt11char_traitsIcESaIcEEES5_E6removeERKS5_
FNA:1,2,_ZN17ChainingHashTableIiNSt7__cxx1112basic_stringIcSt11char_traitsIcESaIcEEEE6removeERKi
FNL:2,133,143
FNA:2,0,_ZNK17ChainingHashTableINSt7__cxx1112basic_stringIcSt11char_traitsIcESaIcEEES5_E7displayEv
FNA:2,1,_ZNK17ChainingHashTableIiNSt7__cxx1112basic_stringIcSt11char_traitsIcESaIcEEEE7displayEv
FNL:3,159,159
FNA:3,16,_ZN23OpenAddressingHashTableINSt7__cxx1112basic_stringIcSt11char_traitsIcESaIcEEES5_E5EntryC2Ev
FNA:3,150,_ZN23OpenAddressingHashTableIiNSt7__cxx1112basic_stringIcSt11char_traitsIcESaIcEEEE5EntryC2Ev
FNL:4,164,168
FNA:4,2,_ZNK23OpenAddressingHashTableINSt7__cxx1112basic_stringIcSt11char_traitsIcESaIcEEES5_E4hashERKS5_m
FNA:4,26,_ZNK23OpenAddressingHashTableIiNSt7__cxx1112basic_stringIcSt11char_traitsIcESaIcEEEE4hashERKim
FNL:5,170,184
FNA:5,0,_ZN23OpenAddressingHashTableINSt7__cxx1112basic_stringIcSt11char_traitsIcESaIcEEES5_E6rehashEv
FNA:5,1,_ZN23OpenAddressingHashTableIiNSt7__cxx1112basic_stringIcSt11char_traitsIcESaIcEEEE6rehashEv
FNL:6,187,188
FNA:6,1,_ZN23OpenAddressingHashTableINSt7__cxx1112basic_stringIcSt11char_traitsIcESaIcEEES5_EC2Emd
FNA:6,10,_ZN23OpenAddressingHashTableIiNSt7__cxx1112basic_stringIcSt11char_traitsIcESaIcEEEEC2Emd
FNL:7,190,209
FNA:7,1,_ZN23OpenAddressingHashTableINSt7__cxx1112basic_stringIcSt11char_traitsIcESaIcEEES5_E6insertERKS5_S8_
FNA:7,14,_ZN23OpenAddressingHashTableIiNSt7__cxx1112basic_stringIcSt11char_traitsIcESaIcEEEE6insertERKiRKS5_
FNL:8,211,221
FNA:8,1,_ZNK23OpenAddressingHashTableINSt7__cxx1112basic_stringIcSt11char_traitsIcESaIcEEES5_E4findERKS5_RS5_
FNA:8,6,_ZNK23OpenAddressingHashTableIiNSt7__cxx1112basic_stringIcSt11char_traitsIcESaIcEEEE4findERKiRS5_
FNL:9,223,234
FNA:9,0,_ZN23OpenAddressingHashTableINSt7__cxx1112basic_stringIcSt11char_traitsIcESaIcEEES5_E6removeERKS5_
FNA:9,3,_ZN23OpenAddressingHashTableIiNSt7__cxx1112basic_stringIcSt11char_traitsIcESaIcEEEE6removeERKi
FNL:10,236,243
FNA:10,0,_ZNK23OpenAddressingHashTableINSt7__cxx1112basic_stringIcSt11char_traitsIcESaIcEEES5_E7displayEv
FNA:10,1,_ZNK23OpenAddressingHashTableIiNSt7__cxx1112basic_stringIcSt11char_traitsIcESaIcEEEE7displayEv
FNL:11,31,32
FNA:11,3,_ZN9HashTableINSt7__cxx1112basic_stringIcSt11char_traitsIcESaIcEEES5_EC2Emd
FNA:11,19,_ZN9HashTableIiNSt7__cxx1112basic_stringIcSt11char_traitsIcESaIcEEEEC2Emd
FNL:12,34,34
FNA:12,0,_ZN9HashTableINSt7__cxx1112basic_stringIcSt11char_traitsIcESaIcEEES5_ED0Ev
FNA:12,3,_ZN9HashTableINSt7__cxx1112basic_stringIcSt11char_traitsIcESaIcEEES5_ED2Ev
FNA:12,0,_ZN9HashTableIiNSt7__cxx1112basic_stringIcSt11char_traitsIcESaIcEEEED0Ev
FNA:12,20,_ZN9HashTableIiNSt7__cxx1112basic_stringIcSt11char_traitsIcESaIcEEEED2Ev
FNL:13,41,43
FNA:13,5,_ZNK9HashTableINSt7__cxx1112basic_stringIcSt11char_traitsIcESaIcEEES5_E10loadFactorEv
FNA:13,41,_ZNK9HashTableIiNSt7__cxx1112basic_stringIcSt11char_traitsIcESaIcEEEE10loadFactorEv
FNL:14,45,45
FNA:14,3,_ZNK9HashTableIiNSt7__cxx1112basic_stringIcSt11char_traitsIcESaIcEEEE7getSizeEv
FNL:15,46,46
FNA:15,3,_ZNK9HashTableIiNSt7__cxx1112basic_stringIcSt11char_traitsIcESaIcEEEE11getCapacityEv
FNL:16,48,61
FNA:16,0,_ZNK9HashTableINSt7__cxx1112basic_stringIcSt11char_traitsIcESaIcEEES5_E15measureFindTimeERKSt6vectorIS5_SaIS5_EEi
FNA:16,2,_ZNK9HashTableIiNSt7__cxx1112basic_stringIcSt11char_traitsIcESaIcEEEE15measureFindTimeERKSt6vectorIiSaIiEEi
FNL:17,73,75
FNA:17,6,_ZNK17ChainingHashTableINSt7__cxx1112basic_stringIcSt11char_traitsIcESaIcEEES5_E4hashERKS5_
FNA:17,32,_ZNK17ChainingHashTableIiNSt7__cxx1112basic_stringIcSt11char_traitsIcESaIcEEEE4hashERKi
FNL:18,77,89
FNA:18,0,_ZN17ChainingHashTableINSt7__cxx1112basic_stringIcSt11char_traitsIcESaIcEEES5_E6rehashEv
FNA:18,1,_ZN17ChainingHashTableIiNSt7__cxx1112basic_stringIcSt11char_traitsIcESaIcEEEE6rehashEv
FNL:19,92,93
FNA:19,2,_ZN17ChainingHashTableINSt7__cxx1112basic_stringIcSt11char_traitsIcESaIcEEES5_EC2Emd
FNA:19,9,_ZN17ChainingHashTableIiNSt7__cxx1112basic_stringIcSt11char_traitsIcESaIcEEEEC2Emd
FNL:20,95,107
FNA:20,4,_ZN17ChainingHashTableINSt7__cxx1112basic_stringIcSt11char_traitsIcESaIcEEES5_E6insertERKS5_S8_
FNA:20,26,_ZN17ChainingHashTableIiNSt7__cxx1112basic_stringIcSt11char_traitsIcESaIcEEEE6insertERKiRKS5_
FNF:21
FNH:21
DA:31,22
DA:32,22
DA:34,23
DA:41,46
DA:42,46
DA:45,3
DA:46,3
DA:48,2
DA:49,2
DA:50,2
DA:52,4
DA:53,4
DA:54,2
DA:58,2
DA:59,2
DA:60,4
DA:61,2
DA:73,38
DA:74,38
DA:77,1
DA:78,1
DA:79,1
DA:81,17
DA:82,31
DA:83,15
DA:84,15
DA:87,1
DA:88,1
DA:89,1
DA:92,11
DA:93,33
DA:95,30
DA:96,30
DA:98,30
DA:99,30
DA:100,1
DA:101,1
DA:102,1
DA:105,29
DA:106,29
DA:109,6
DA:110,6
DA:111,6
DA:112,5
DA:113,5
DA:114,5
DA:117,1
DA:120,2
DA:121,2
DA:122,2
DA:123,2
DA:124,1
DA:125,1
DA:126,1
DA:127,1
DA:130,1
DA:133,1
DA:134,1
DA:135,17
DA:136,16
DA:137,1
DA:138,2
DA:139,1
DA:140,1
DA:143,1
DA:159,166
DA:164,28
DA:165,28
DA:166,28
DA:167,28
DA:170,1
DA:171,1
DA:172,1
DA:173,1
DA:175,1
DA:176,1
DA:177,1
DA:179,3
DA:180,2
DA:181,2
DA:184,1
DA:187,11
DA:188,33
DA:190,15
DA:191,15
DA:193,16
DA:194,16
DA:195,16
DA:196,1
DA:197,1
DA:199,15
DA:200,14
DA:201,14
DA:202,14
DA:203,14
DA:204,14
DA:207,0
DA:208,0
DA:211,7
DA:212,8
DA:213,8
DA:214,8
DA:215,8
DA:216,7
DA:217,7
DA:220,0
DA:223,3
DA:224,4
DA:225,4
DA:226,4
DA:227,3
DA:228,2
DA:229,2
DA:230,2
DA:233,0
DA:236,1
DA:237,1
DA:238,17
DA:239,16
DA:240,1
DA:243,1
LF:121
LH:117
end_of_record
TN:
SF:/home/shreyber/LabWork3/main_test.cpp
FNL:0,3,9
FNA:0,1,main
FNF:1
FNH:1
DA:3,1
DA:5,1
DA:8,1
LF:3
LH:3
end_of_record
TN:
SF:/home/shreyber/LabWork3/queue.cpp
FNL:0,13,17
FNA:0,8,_ZN5Queue5clearEv
FNL:1,19,21
FNA:1,60,_ZNK5Queue7isEmptyEv
FNL:2,23,25
FNA:2,6,_ZNK5Queue4sizeEv
FNL:3,28,37
FNA:3,17,_ZN5Queue4pushERKNSt7__cxx1112basic_stringIcSt11char_traitsIcESaIcEEE
FNL:4,40,57
FNA:4,18,_ZN5Queue3popB5cxx11Ev
FNL:5,6,6
FNA:5,8,_ZN5QueueC2Ev
FNL:6,60,70
FNA:6,8,_ZNK5Queue10getByIndexB5cxx11Ei
FNL:7,73,86
FNA:7,2,_ZNK5Queue5printEv
FNL:8,9,11
FNA:8,8,_ZN5QueueD2Ev
FNF:9
FNH:9
DA:6,8
DA:9,8
DA:10,8
DA:11,8
DA:13,8
DA:14,20
DA:15,12
DA:17,8
DA:19,60
DA:20,60
DA:23,6
DA:24,6
DA:28,17
DA:29,17
DA:30,17
DA:31,8
DA:33,9
DA:34,9
DA:36,17
DA:37,17
DA:40,18
DA:41,18
DA:42,1
DA:43,2
DA:46,17
DA:47,17
DA:48,17
DA:50,17
DA:51,8
DA:54,17
DA:55,17
DA:56,17
DA:57,17
DA:60,8
DA:61,8
DA:62,1
DA:63,2
DA:65,7
DA:66,12
DA:67,5
DA:69,7
DA:73,2
DA:74,2
DA:75,0
DA:76,0
DA:79,2
DA:80,2
DA:81,6
DA:82,4
DA:83,4
DA:85,2
LF:51
LH:49
end_of_record
TN:
SF:/home/shreyber/LabWork3/queue.h
FNF:0
FNH:0
LF:0
LH:0
end_of_record
TN:
SF:/home/shreyber/LabWork3/set.cpp
FNL:0,101,101
FNA:0,5,_ZNK3Set4sizeEv
FNL:1,103,103
FNA:1,1,_ZNK3Set7isEmptyEv
FNL:2,105,118
FNA:2,3,_ZNK3Set5printEv
FNL:3,120,130
FNA:3,4,_ZNK3Set8toVectorEv
FNL:4,133,146
FNA:4,6,_ZL9backtrackRSt6vectorIiSaIiEERS_IS1_SaIS1_EES2_ii
FNL:5,148,166
FNA:5,2,_ZNK3Set9partitionEiRSt6vectorIS0_IiSaIiEESaIS2_EE
FNL:6,16,19
FNA:6,8,_ZN3SetD2Ev
FNL:7,21,24
FNA:7,62,_ZNK3Set12hashFunctionEi
FNL:8,26,47
FNA:8,22,_ZN3Set14rehashIfNeededEv
FNL:9,49,57
FNA:9,23,_ZN3Set6insertEi
FNL:10,59,67
FNA:10,34,_ZNK3Set8containsEi
FNL:11,69,86
FNA:11,1,_ZN3Set6removeEi
FNL:12,88,99
FNA:12,8,_ZN3Set5clearEv
FNL:13,9,14
FNA:13,8,_ZN3SetC2Ei
FNF:14
FNH:14
DA:9,8
DA:10,8
DA:11,525
DA:12,517
DA:14,8
DA:16,8
DA:17,8
DA:18,8
DA:19,8
DA:21,62
DA:23,62
DA:26,22
DA:27,22
DA:28,22
DA:29,2
DA:30,2
DA:31,2
DA:32,14
DA:34,8
DA:35,6
DA:36,11
DA:37,5
DA:38,5
DA:39,5
DA:40,5
DA:41,5
DA:44,2
DA:45,2
DA:47,22
DA:49,23
DA:50,23
DA:52,22
DA:53,22
DA:54,22
DA:55,22
DA:56,22
DA:59,34
DA:60,34
DA:61,34
DA:62,40
DA:63,16
DA:64,6
DA:66,24
DA:69,1
DA:70,1
DA:71,1
DA:72,1
DA:74,2
DA:75,2
DA:76,1
DA:77,1
DA:78,1
DA:79,1
DA:80,1
DA:82,1
DA:83,1
DA:85,0
DA:88,8
DA:89,531
DA:90,523
DA:91,544
DA:92,21
DA:93,21
DA:94,21
DA:96,523
DA:98,8
DA:99,8
DA:101,5
DA:103,1
DA:105,3
DA:106,3
DA:107,3
DA:108,18
DA:109,15
DA:110,18
DA:111,3
DA:112,3
DA:113,3
DA:114,3
DA:117,3
DA:118,3
DA:120,4
DA:121,4
DA:122,408
DA:123,404
DA:124,419
DA:125,15
DA:126,15
DA:129,4
DA:130,0
DA:133,6
DA:134,6
DA:135,8
DA:136,8
DA:137,5
DA:138,5
DA:139,5
DA:140,0
DA:141,0
DA:142,0
DA:145,0
DA:148,2
DA:149,2
DA:150,2
DA:151,12
DA:153,2
DA:154,1
DA:156,1
DA:157,1
DA:159,2
DA:160,1
DA:161,1
DA:162,1
DA:163,1
DA:165,0
DA:166,2
LF:116
LH:109
end_of_record
TN:
SF:/home/shreyber/LabWork3/stack.cpp
FNL:0,11,15
FNA:0,8,_ZN5Stack5clearEv
FNL:1,17,19
FNA:1,47,_ZNK5Stack7isEmptyEv
FNL:2,21,23
FNA:2,4,_ZNK5Stack4sizeEv
FNL:3,26,30
FNA:3,16,_ZN5Stack4pushERKNSt7__cxx1112basic_stringIcSt11char_traitsIcESaIcEEE
FNL:4,33,46
FNA:4,17,_ZN5Stack3popB5cxx11Ev
FNL:5,48,51
FNA:5,5,_ZNK5Stack4peekB5cxx11Ev
FNL:6,5,5
FNA:6,8,_ZN5StackC2Ev
FNL:7,53,63
FNA:7,5,_ZNK5Stack10getByIndexB5cxx11Ei
FNL:8,65,78
FNA:8,2,_ZNK5Stack5printEv
FNL:9,7,9
FNA:9,8,_ZN5StackD2Ev
FNF:10
FNH:10
DA:5,8
DA:7,8
DA:8,8
DA:9,8
DA:11,8
DA:12,22
DA:13,14
DA:15,8
DA:17,47
DA:18,47
DA:21,4
DA:22,4
DA:26,16
DA:27,16
DA:28,16
DA:29,16
DA:30,16
DA:33,17
DA:34,17
DA:35,1
DA:36,2
DA:39,16
DA:40,16
DA:41,16
DA:43,16
DA:44,16
DA:45,16
DA:46,16
DA:48,5
DA:49,7
DA:50,4
DA:53,5
DA:54,5
DA:55,1
DA:56,2
DA:58,4
DA:59,7
DA:60,3
DA:62,4
DA:65,2
DA:66,2
DA:67,0
DA:68,0
DA:71,2
DA:72,2
DA:73,6
DA:74,4
DA:75,4
DA:77,2
LF:49
LH:47
end_of_record
TN:
SF:/home/shreyber/LabWork3/stack.h
FNF:0
FNH:0
LF:0
LH:0
end_of_record
TN:
SF:/home/shreyber/LabWork3/stringDL.cpp
FNL:0,102,109
FNA:0,8,_ZNK8StringDL4findERKNSt7__cxx1112basic_stringIcSt11char_traitsIcESaIcEEE
FNL:1,11,15
FNA:1,8,_ZN8StringDL5clearEv
FNL:2,111,119
FNA:2,3,_ZNK8StringDL5printEv
FNL:3,121,125
FNA:3,1,_ZNK8StringDL14printRecursiveEv
FNL:4,127,131
FNA:4,3,_ZNK8StringDL21printRecursivePrivateEPNS_6NodeDLE
FNL:5,17,26
FNA:5,3,_ZN8StringDL7addHeadERKNSt7__cxx1112basic_stringIcSt11char_traitsIcESaIcEEE
FNL:6,28,37
FNA:6,17,_ZN8StringDL7addTailERKNSt7__cxx1112basic_stringIcSt11char_traitsIcESaIcEEE
FNL:7,39,49
FNA:7,1,_ZN8StringDL8addAfterEPNS_6NodeDLERKNSt7__cxx1112basic_stringIcSt11char_traitsIcESaIcEEE
FNL:8,5,5
FNA:8,8,_ZN8StringDLC2Ev
FNL:9,51,61
FNA:9,1,_ZN8StringDL9addBeforeEPNS_6NodeDLERKNSt7__cxx1112basic_stringIcSt11char_traitsIcESaIcEEE
FNL:10,63,73
FNA:10,21,_ZN8StringDL10deleteHeadEv
FNL:11,7,9
FNA:11,8,_ZN8StringDLD2Ev
FNL:12,75,85
FNA:12,1,_ZN8StringDL10deleteTailEv
FNL:13,87,100
FNA:13,1,_ZN8StringDL13deleteByValueERKNSt7__cxx1112basic_stringIcSt11char_traitsIcESaIcEEE
FNF:14
FNH:14
DA:5,8
DA:7,8
DA:8,8
DA:9,8
DA:11,8
DA:12,27
DA:13,19
DA:15,8
DA:17,3
DA:18,3
DA:19,3
DA:20,1
DA:22,3
DA:23,3
DA:24,2
DA:26,3
DA:28,17
DA:29,17
DA:30,17
DA:31,11
DA:33,17
DA:34,17
DA:35,6
DA:37,17
DA:39,1
DA:40,1
DA:41,1
DA:42,1
DA:43,1
DA:45,1
DA:46,1
DA:47,0
DA:51,1
DA:52,1
DA:53,1
DA:54,1
DA:55,1
DA:57,1
DA:58,1
DA:59,0
DA:63,21
DA:64,21
DA:65,21
DA:66,21
DA:67,21
DA:68,14
DA:70,7
DA:72,21
DA:75,1
DA:76,1
DA:77,1
DA:78,1
DA:79,1
DA:80,0
DA:82,1
DA:84,1
DA:87,1
DA:88,1
DA:89,1
DA:91,1
DA:92,1
DA:93,0
DA:94,0
DA:96,0
DA:97,0
DA:98,0
DA:102,8
DA:103,8
DA:104,15
DA:105,12
DA:106,7
DA:108,3
DA:111,3
DA:112,3
DA:113,3
DA:114,13
DA:115,10
DA:116,10
DA:118,3
DA:119,3
DA:121,1
DA:122,1
DA:123,1
DA:124,1
DA:125,1
DA:127,3
DA:128,3
DA:129,2
DA:130,2
LF:89
LH:81
end_of_record
TN:
SF:/home/shreyber/LabWork3/stringDL.h
FNF:0
FNH:0
LF:0
LH:0
end_of_record
TN:
SF:/home/shreyber/LabWork3/stringOL.cpp
FNL:0,105,115
FNA:0,4,_ZNK8StringOL5printEv
FNL:1,11,15
FNA:1,14,_ZN8StringOL5clearEv
FNL:2,117,120
FNA:2,1,_ZNK8StringOL14printRecursiveEv
FNL:3,122,129
FNA:3,2,_ZNK8StringOL21printRecursivePrivateEPNS_4NodeE
FNL:4,131,136
FNA:4,2,_ZN8StringOL11deleteAfterEPNS_4NodeE
FNL:5,138,154
FNA:5,8,_ZN8StringOL12deleteBeforeEPNS_4NodeE
FNL:6,17,19
FNA:6,7,_ZN8StringOL7addHeadERKNSt7__cxx1112basic_stringIcSt11char_traitsIcESaIcEEE
FNL:7,21,30
FNA:7,30,_ZN8StringOL7addTailERKNSt7__cxx1112basic_stringIcSt11char_traitsIcESaIcEEE
FNL:8,32,41
FNA:8,2,_ZN8StringOL8addAfterERKNSt7__cxx1112basic_stringIcSt11char_traitsIcESaIcEEES7_
FNL:9,43,58
FNA:9,2,_ZN8StringOL9addBeforeERKNSt7__cxx1112basic_stringIcSt11char_traitsIcESaIcEEES7_
FNL:10,5,5
FNA:10,14,_ZN8StringOLC2Ev
FNL:11,60,65
FNA:11,35,_ZN8StringOL10deleteHeadEv
FNL:12,67,78
FNA:12,4,_ZN8StringOL10deleteTailEv
FNL:13,7,9
FNA:13,14,_ZN8StringOLD2Ev
FNL:14,80,94
FNA:14,2,_ZN8StringOL13deleteByValueERKNSt7__cxx1112basic_stringIcSt11char_traitsIcESaIcEEE
FNL:15,96,103
FNA:15,31,_ZNK8StringOL4findERKNSt7__cxx1112basic_stringIcSt11char_traitsIcESaIcEEE
FNF:16
FNH:16
DA:5,14
DA:7,14
DA:8,14
DA:9,14
DA:11,14
DA:12,41
DA:13,27
DA:15,14
DA:17,7
DA:18,7
DA:19,7
DA:21,30
DA:22,30
DA:23,30
DA:24,8
DA:25,8
DA:27,22
DA:28,34
DA:29,22
DA:32,2
DA:33,2
DA:34,2
DA:35,2
DA:36,2
DA:37,2
DA:39,0
DA:43,2
DA:44,2
DA:45,2
DA:46,0
DA:47,0
DA:49,2
DA:50,2
DA:51,6
DA:52,4
DA:53,4
DA:55,2
DA:56,2
DA:60,35
DA:61,35
DA:62,34
DA:63,34
DA:64,34
DA:67,4
DA:68,4
DA:69,3
DA:70,2
DA:71,2
DA:72,2
DA:74,1
DA:75,2
DA:76,1
DA:77,1
DA:80,2
DA:81,4
DA:82,2
DA:84,2
DA:85,3
DA:86,1
DA:87,1
DA:88,1
DA:89,1
DA:91,0
DA:94,2
DA:96,31
DA:97,31
DA:98,60
DA:99,52
DA:100,29
DA:102,8
DA:105,4
DA:106,4
DA:107,4
DA:108,13
DA:109,9
DA:110,9
DA:111,9
DA:112,9
DA:114,4
DA:115,4
DA:117,1
DA:118,1
DA:119,1
DA:120,1
DA:122,2
DA:123,2
DA:124,2
DA:125,2
DA:126,1
DA:127,1
DA:131,2
DA:132,2
DA:133,2
DA:134,2
DA:135,2
DA:138,8
DA:139,8
DA:140,5
DA:141,3
DA:142,3
DA:144,2
DA:145,2
DA:146,3
DA:147,1
DA:148,1
DA:150,2
DA:151,1
DA:152,1
LF:108
LH:104
end_of_record
TN:
SF:/home/shreyber/LabWork3/stringOL.h
FNF:0
FNH:0
LF:0
LH:0
end_of_record
TN:
SF:/home/shreyber/LabWork3/tests.cpp
FNL:0,1031,1075
FNA:0,1,_ZN49HashTableSerialization_TextFormat_Simulation_Test8TestBodyEv
FNA:0,1,_ZN49HashTableSerialization_TextFormat_Simulation_TestC2Ev
FNA:0,1,_ZN49HashTableSerialization_TextFormat_Simulation_TestD0Ev
FNA:0,1,_ZN49HashTableSerialization_TextFormat_Simulation_TestD2Ev
FNL:1,104,128
FNA:1,1,_ZN33ArrayTest_PrintArrayCoverage_Test8TestBodyEv
FNA:1,1,_ZN33ArrayTest_PrintArrayCoverage_TestC2Ev
FNA:1,1,_ZN33ArrayTest_PrintArrayCoverage_TestD0Ev
FNA:1,1,_ZN33ArrayTest_PrintArrayCoverage_TestD2Ev
FNL:2,1077,1122
FNA:2,1,_ZN43QueueSerialization_BinaryStream_Manual_Test8TestBodyEv
FNA:2,1,_ZN43QueueSerialization_BinaryStream_Manual_TestC2Ev
FNA:2,1,_ZN43QueueSerialization_BinaryStream_Manual_TestD0Ev
FNA:2,1,_ZN43QueueSerialization_BinaryStream_Manual_TestD2Ev
FNL:3,1124,1176
FNA:3,1,_ZN45QueueSerialization_TextFormat_Simulation_Test8TestBodyEv
FNA:3,1,_ZN45QueueSerialization_TextFormat_Simulation_TestC2Ev
FNA:3,1,_ZN45QueueSerialization_TextFormat_Simulation_TestD0Ev
FNA:3,1,_ZN45QueueSerialization_TextFormat_Simulation_TestD2Ev
FNL:4,1178,1220
FNA:4,1,_ZN41SetSerialization_BinaryStream_Manual_Test8TestBodyEv
FNA:4,1,_ZN41SetSerialization_BinaryStream_Manual_TestC2Ev
FNA:4,1,_ZN41SetSerialization_BinaryStream_Manual_TestD0Ev
FNA:4,1,_ZN41SetSerialization_BinaryStream_Manual_TestD2Ev
FNL:5,1223,1269
FNA:5,1,_ZN43SetSerialization_TextFormat_Simulation_Test8TestBodyEv
FNA:5,1,_ZN43SetSerialization_TextFormat_Simulation_TestC2Ev
FNA:5,1,_ZN43SetSerialization_TextFormat_Simulation_TestD0Ev
FNA:5,1,_ZN43SetSerialization_TextFormat_Simulation_TestD2Ev
FNL:6,1271,1316
FNA:6,1,_ZN43StackSerialization_BinaryStream_Manual_Test8TestBodyEv
FNA:6,1,_ZN43StackSerialization_BinaryStream_Manual_TestC2Ev
FNA:6,1,_ZN43StackSerialization_BinaryStream_Manual_TestD0Ev
FNA:6,1,_ZN43StackSerialization_BinaryStream_Manual_TestD2Ev
FNL:7,131,143
FNA:7,1,_ZN28StringOLTest_AddAndFind_Test8TestBodyEv
FNA:7,1,_ZN28StringOLTest_AddAndFind_TestC2Ev
FNA:7,1,_ZN28StringOLTest_AddAndFind_TestD0Ev
FNA:7,1,_ZN28StringOLTest_AddAndFind_TestD2Ev
FNL:8,1318,1362
FNA:8,1,_ZN45StackSerialization_TextFormat_Simulation_Test8TestBodyEv
FNA:8,1,_ZN45StackSerialization_TextFormat_Simulation_TestC2Ev
FNA:8,1,_ZN45StackSerialization_TextFormat_Simulation_TestD0Ev
FNA:8,1,_ZN45StackSerialization_TextFormat_Simulation_TestD2Ev
FNL:9,1364,1411
FNA:9,1,_ZN46StringDLSerialization_BinaryStream_Manual_Test8TestBodyEv
FNA:9,1,_ZN46StringDLSerialization_BinaryStream_Manual_TestC2Ev
FNA:9,1,_ZN46StringDLSerialization_BinaryStream_Manual_TestD0Ev
FNA:9,1,_ZN46StringDLSerialization_BinaryStream_Manual_TestD2Ev
FNL:10,1413,1465
FNA:10,1,_ZN48StringDLSerialization_TextFormat_Simulation_Test8TestBodyEv
FNA:10,1,_ZN48StringDLSerialization_TextFormat_Simulation_TestC2Ev
FNA:10,1,_ZN48StringDLSerialization_TextFormat_Simulation_TestD0Ev
FNA:10,1,_ZN48StringDLSerialization_TextFormat_Simulation_TestD2Ev
FNL:11,146,173
FNA:11,1,_ZN26StringOLTest_Deletion_Test8TestBodyEv
FNA:11,1,_ZN26StringOLTest_Deletion_TestC2Ev
FNA:11,1,_ZN26StringOLTest_Deletion_TestD0Ev
FNA:11,1,_ZN26StringOLTest_Deletion_TestD2Ev
FNL:12,1467,1508
FNA:12,1,_ZN46StringOLSerialization_BinaryStream_Manual_Test8TestBodyEv
FNA:12,1,_ZN46StringOLSerialization_BinaryStream_Manual_TestC2Ev
FNA:12,1,_ZN46StringOLSerialization_BinaryStream_Manual_TestD0Ev
FNA:12,1,_ZN46StringOLSerialization_BinaryStream_Manual_TestD2Ev
FNL:13,1510,1560
FNA:13,1,_ZN48StringOLSerialization_TextFormat_Simulation_Test8TestBodyEv
FNA:13,1,_ZN48StringOLSerialization_TextFormat_Simulation_TestC2Ev
FNA:13,1,_ZN48StringOLSerialization_TextFormat_Simulation_TestD0Ev
FNA:13,1,_ZN48StringOLSerialization_TextFormat_Simulation_TestD2Ev
FNL:14,175,214
FNA:14,1,_ZN31StringOLTest_DelBeforeTest_Test8TestBodyEv
FNA:14,1,_ZN31StringOLTest_DelBeforeTest_TestC2Ev
FNA:14,1,_ZN31StringOLTest_DelBeforeTest_TestD0Ev
FNA:14,1,_ZN31StringOLTest_DelBeforeTest_TestD2Ev
FNL:15,18,22
FNA:15,1,_ZN41ArrayTest_ConstructorAndInitialState_Test8TestBodyEv
FNA:15,1,_ZN41ArrayTest_ConstructorAndInitialState_TestC2Ev
FNA:15,1,_ZN41ArrayTest_ConstructorAndInitialState_TestD0Ev
FNA:15,1,_ZN41ArrayTest_ConstructorAndInitialState_TestD2Ev
FNL:16,217,226
FNA:16,1,_ZN31StringOLTest_OutputMethods_Test8TestBodyEv
FNA:16,1,_ZN31StringOLTest_OutputMethods_TestC2Ev
FNA:16,1,_ZN31StringOLTest_OutputMethods_TestD0Ev
FNA:16,1,_ZN31StringOLTest_OutputMethods_TestD2Ev
FNL:17,229,237
FNA:17,1,_ZN35StringOLTest_EdgeDeletionCases_Test8TestBodyEv
FNA:17,1,_ZN35StringOLTest_EdgeDeletionCases_TestC2Ev
FNA:17,1,_ZN35StringOLTest_EdgeDeletionCases_TestD0Ev
FNA:17,1,_ZN35StringOLTest_EdgeDeletionCases_TestD2Ev
FNL:18,240,252
FNA:18,1,_ZN29FBTCoverage_PrintMethods_Test8TestBodyEv
FNA:18,1,_ZN29FBTCoverage_PrintMethods_TestC2Ev
FNA:18,1,_ZN29FBTCoverage_PrintMethods_TestD0Ev
FNA:18,1,_ZN29FBTCoverage_PrintMethods_TestD2Ev
FNL:19,25,33
FNA:19,1,_ZN31ArrayTest_PushBackElements_Test8TestBodyEv
FNA:19,1,_ZN31ArrayTest_PushBackElements_TestC2Ev
FNA:19,1,_ZN31ArrayTest_PushBackElements_TestD0Ev
FNA:19,1,_ZN31ArrayTest_PushBackElements_TestD2Ev
FNL:20,255,266
FNA:20,1,_ZN26FBTCoverage_EdgeCases_Test8TestBodyEv
FNA:20,1,_ZN26FBTCoverage_EdgeCases_TestC2Ev
FNA:20,1,_ZN26FBTCoverage_EdgeCases_TestD0Ev
FNA:20,1,_ZN26FBTCoverage_EdgeCases_TestD2Ev
FNL:21,269,287
FNA:21,1,_ZN30FBTCoverage_FullnessLogic_Test8TestBodyEv
FNA:21,1,_ZN30FBTCoverage_FullnessLogic_TestC2Ev
FNA:21,1,_ZN30FBTCoverage_FullnessLogic_TestD0Ev
FNA:21,1,_ZN30FBTCoverage_FullnessLogic_TestD2Ev
FNL:22,290,303
FNA:22,1,_ZN31FBTCoverage_SubtreeComplex_Test8TestBodyEv
FNA:22,1,_ZN31FBTCoverage_SubtreeComplex_TestC2Ev
FNA:22,1,_ZN31FBTCoverage_SubtreeComplex_TestD0Ev
FNA:22,1,_ZN31FBTCoverage_SubtreeComplex_TestD2Ev
FNL:23,310,316
FNA:23,1,_ZN31ChainingTest_InsertAndFind_Test8TestBodyEv
FNA:23,1,_ZN31ChainingTest_InsertAndFind_TestC2Ev
FNA:23,1,_ZN31ChainingTest_InsertAndFind_TestD0Ev
FNA:23,1,_ZN31ChainingTest_InsertAndFind_TestD2Ev
FNL:24,318,325
FNA:24,1,_ZN32ChainingTest_UpdateExisting_Test8TestBodyEv
FNA:24,1,_ZN32ChainingTest_UpdateExisting_TestC2Ev
FNA:24,1,_ZN32ChainingTest_UpdateExisting_TestD0Ev
FNA:24,1,_ZN32ChainingTest_UpdateExisting_TestD2Ev
FNL:25,327,333
FNA:25,1,_ZN33ChainingTest_RemoveScenarios_Test8TestBodyEv
FNA:25,1,_ZN33ChainingTest_RemoveScenarios_TestC2Ev
FNA:25,1,_ZN33ChainingTest_RemoveScenarios_TestD0Ev
FNA:25,1,_ZN33ChainingTest_RemoveScenarios_TestD2Ev
FNL:26,335,339
FNA:26,1,_ZN29ChainingTest_ForceRehash_Test8TestBodyEv
FNA:26,1,_ZN29ChainingTest_ForceRehash_TestC2Ev
FNA:26,1,_ZN29ChainingTest_ForceRehash_TestD0Ev
FNA:26,1,_ZN29ChainingTest_ForceRehash_TestD2Ev
FNL:27,341,345
FNA:27,1,_ZN25ChainingTest_Getters_Test8TestBodyEv
FNA:27,1,_ZN25ChainingTest_Getters_TestC2Ev
FNA:27,1,_ZN25ChainingTest_Getters_TestD0Ev
FNA:27,1,_ZN25ChainingTest_Getters_TestD2Ev
FNL:28,352,357
FNA:28,1,_ZN34OpenAddressingTest_InsertFind_Test8TestBodyEv
FNA:28,1,_ZN34OpenAddressingTest_InsertFind_TestC2Ev
FNA:28,1,_ZN34OpenAddressingTest_InsertFind_TestD0Ev
FNA:28,1,_ZN34OpenAddressingTest_InsertFind_TestD2Ev
FNL:29,359,365
FNA:29,1,_ZN38OpenAddressingTest_UpdateExisting_Test8TestBodyEv
FNA:29,1,_ZN38OpenAddressingTest_UpdateExisting_TestC2Ev
FNA:29,1,_ZN38OpenAddressingTest_UpdateExisting_TestD0Ev
FNA:29,1,_ZN38OpenAddressingTest_UpdateExisting_TestD2Ev
FNL:30,36,46
FNA:30,1,_ZN42ArrayTest_AddByIndexAndCapacityResize_Test8TestBodyEv
FNA:30,1,_ZN42ArrayTest_AddByIndexAndCapacityResize_TestC2Ev
FNA:30,1,_ZN42ArrayTest_AddByIndexAndCapacityResize_TestD0Ev
FNA:30,1,_ZN42ArrayTest_AddByIndexAndCapacityResize_TestD2Ev
FNL:31,367,377
FNA:31,1,_ZN41OpenAddressingTest_DeletedStateLogic_Test8TestBodyEv
FNA:31,1,_ZN41OpenAddressingTest_DeletedStateLogic_TestC2Ev
FNA:31,1,_ZN41OpenAddressingTest_DeletedStateLogic_TestD0Ev
FNA:31,1,_ZN41OpenAddressingTest_DeletedStateLogic_TestD2Ev
FNL:32,379,388
FNA:32,1,_ZN46OpenAddressingTest_RecursiveRehashTrigger_Test8TestBodyEv
FNA:32,1,_ZN46OpenAddressingTest_RecursiveRehashTrigger_TestC2Ev
FNA:32,1,_ZN46OpenAddressingTest_RecursiveRehashTrigger_TestD0Ev
FNA:32,1,_ZN46OpenAddressingTest_RecursiveRehashTrigger_TestD2Ev
FNL:33,391,402
FNA:33,1,_ZN39CopyConstructorTest_ForceEntryCopy_Test8TestBodyEv
FNA:33,1,_ZN39CopyConstructorTest_ForceEntryCopy_TestC2Ev
FNA:33,1,_ZN39CopyConstructorTest_ForceEntryCopy_TestD0Ev
FNA:33,1,_ZN39CopyConstructorTest_ForceEntryCopy_TestD2Ev
FNL:34,406,411
FNA:34,1,_ZN39GeneralCoverage_VirtualDestructors_Test8TestBodyEv
FNA:34,1,_ZN39GeneralCoverage_VirtualDestructors_TestC2Ev
FNA:34,1,_ZN39GeneralCoverage_VirtualDestructors_TestD0Ev
FNA:34,1,_ZN39GeneralCoverage_VirtualDestructors_TestD2Ev
FNL:35,413,437
FNA:35,1,_ZN42GeneralCoverage_DisplayAndMeasureTime_Test8TestBodyEv
FNA:35,1,_ZN42GeneralCoverage_DisplayAndMeasureTime_TestC2Ev
FNA:35,1,_ZN42GeneralCoverage_DisplayAndMeasureTime_TestD0Ev
FNA:35,1,_ZN42GeneralCoverage_DisplayAndMeasureTime_TestD2Ev
FNL:36,439,450
FNA:36,1,_ZN39FinalCoverage_FixVirtualDestructor_Test8TestBodyEv
FNA:36,1,_ZN39FinalCoverage_FixVirtualDestructor_TestC2Ev
FNA:36,1,_ZN39FinalCoverage_FixVirtualDestructor_TestD0Ev
FNA:36,1,_ZN39FinalCoverage_FixVirtualDestructor_TestD2Ev
FNL:37,452,456
FNA:37,1,_ZN41FinalCoverage_FixVirtualDestructorOA_Test8TestBodyEv
FNA:37,1,_ZN41FinalCoverage_FixVirtualDestructorOA_TestC2Ev
FNA:37,1,_ZN41FinalCoverage_FixVirtualDestructorOA_TestD0Ev
FNA:37,1,_ZN41FinalCoverage_FixVirtualDestructorOA_TestD2Ev
FNL:38,458,465
FNA:38,1,_ZN36FinalCoverage_DeleteThroughBase_Test8TestBodyEv
FNA:38,1,_ZN36FinalCoverage_DeleteThroughBase_TestC2Ev
FNA:38,1,_ZN36FinalCoverage_DeleteThroughBase_TestD0Ev
FNA:38,1,_ZN36FinalCoverage_DeleteThroughBase_TestD2Ev
FNL:39,468,484
FNA:39,1,_ZN32QueueTest_PushPopOperations_Test8TestBodyEv
FNA:39,1,_ZN32QueueTest_PushPopOperations_TestC2Ev
FNA:39,1,_ZN32QueueTest_PushPopOperations_TestD0Ev
FNA:39,1,_ZN32QueueTest_PushPopOperations_TestD2Ev
FNL:40,487,502
FNA:40,1,_ZN25QueueTest_GetByIndex_Test8TestBodyEv
FNA:40,1,_ZN25QueueTest_GetByIndex_TestC2Ev
FNA:40,1,_ZN25QueueTest_GetByIndex_TestD0Ev
FNA:40,1,_ZN25QueueTest_GetByIndex_TestD2Ev
FNL:41,49,54
FNA:41,1,_ZN33ArrayTest_ChangeElementValue_Test8TestBodyEv
FNA:41,1,_ZN33ArrayTest_ChangeElementValue_TestC2Ev
FNA:41,1,_ZN33ArrayTest_ChangeElementValue_TestD0Ev
FNA:41,1,_ZN33ArrayTest_ChangeElementValue_TestD2Ev
FNL:42,505,518
FNA:42,1,_ZN30QueueTest_EmptyQueueCases_Test8TestBodyEv
FNA:42,1,_ZN30QueueTest_EmptyQueueCases_TestC2Ev
FNA:42,1,_ZN30QueueTest_EmptyQueueCases_TestD0Ev
FNA:42,1,_ZN30QueueTest_EmptyQueueCases_TestD2Ev
FNL:43,521,530
FNA:43,1,_ZN28QueueTest_PrintCoverage_Test8TestBodyEv
FNA:43,1,_ZN28QueueTest_PrintCoverage_TestC2Ev
FNA:43,1,_ZN28QueueTest_PrintCoverage_TestD0Ev
FNA:43,1,_ZN28QueueTest_PrintCoverage_TestD2Ev
FNL:44,533,549
FNA:44,1,_ZN28SetTest_BasicOperations_Test8TestBodyEv
FNA:44,1,_ZN28SetTest_BasicOperations_TestC2Ev
FNA:44,1,_ZN28SetTest_BasicOperations_TestD0Ev
FNA:44,1,_ZN28SetTest_BasicOperations_TestD2Ev
FNL:45,552,563
FNA:45,1,_ZN27SetTest_RehashInternal_Test8TestBodyEv
FNA:45,1,_ZN27SetTest_RehashInternal_TestC2Ev
FNA:45,1,_ZN27SetTest_RehashInternal_TestD0Ev
FNA:45,1,_ZN27SetTest_RehashInternal_TestD2Ev
FNL:46,566,583
FNA:46,1,_ZN31SetTest_PartitionAlgorithm_Test8TestBodyEv
FNA:46,1,_ZN31SetTest_PartitionAlgorithm_TestC2Ev
FNA:46,1,_ZN31SetTest_PartitionAlgorithm_TestD0Ev
FNA:46,1,_ZN31SetTest_PartitionAlgorithm_TestD2Ev
FNL:47,57,68
FNA:47,1,_ZN36ArrayTest_RemoveElementAndShift_Test8TestBodyEv
FNA:47,1,_ZN36ArrayTest_RemoveElementAndShift_TestC2Ev
FNA:47,1,_ZN36ArrayTest_RemoveElementAndShift_TestD0Ev
FNA:47,1,_ZN36ArrayTest_RemoveElementAndShift_TestD2Ev
FNL:48,585,614
FNA:48,1,_ZN26SetTest_PrintCoverage_Test8TestBodyEv
FNA:48,1,_ZN26SetTest_PrintCoverage_TestC2Ev
FNA:48,1,_ZN26SetTest_PrintCoverage_TestD0Ev
FNA:48,1,_ZN26SetTest_PrintCoverage_TestD2Ev
FNL:49,617,633
FNA:49,1,_ZN29StackTest_LIFOOperations_Test8TestBodyEv
FNA:49,1,_ZN29StackTest_LIFOOperations_TestC2Ev
FNA:49,1,_ZN29StackTest_LIFOOperations_TestD0Ev
FNA:49,1,_ZN29StackTest_LIFOOperations_TestD2Ev
FNL:50,636,650
FNA:50,1,_ZN25StackTest_GetByIndex_Test8TestBodyEv
FNA:50,1,_ZN25StackTest_GetByIndex_TestC2Ev
FNA:50,1,_ZN25StackTest_GetByIndex_TestD0Ev
FNA:50,1,_ZN25StackTest_GetByIndex_TestD2Ev
FNL:51,653,664
FNA:51,1,_ZN33StackTest_EmptyStackHandling_Test8TestBodyEv
FNA:51,1,_ZN33StackTest_EmptyStackHandling_TestC2Ev
FNA:51,1,_ZN33StackTest_EmptyStackHandling_TestD0Ev
FNA:51,1,_ZN33StackTest_EmptyStackHandling_TestD2Ev
FNL:52,667,679
FNA:52,1,_ZN28StackTest_ClearAndPrint_Test8TestBodyEv
FNA:52,1,_ZN28StackTest_ClearAndPrint_TestC2Ev
FNA:52,1,_ZN28StackTest_ClearAndPrint_TestD0Ev
FNA:52,1,_ZN28StackTest_ClearAndPrint_TestD2Ev
FNL:53,682,693
FNA:53,1,_ZN29StringDLTest_AddHeadTail_Test8TestBodyEv
FNA:53,1,_ZN29StringDLTest_AddHeadTail_TestC2Ev
FNA:53,1,_ZN29StringDLTest_AddHeadTail_TestD0Ev
FNA:53,1,_ZN29StringDLTest_AddHeadTail_TestD2Ev
FNL:54,696,711
FNA:54,1,_ZN32StringDLTest_InsertRelative_Test8TestBodyEv
FNA:54,1,_ZN32StringDLTest_InsertRelative_TestC2Ev
FNA:54,1,_ZN32StringDLTest_InsertRelative_TestD0Ev
FNA:54,1,_ZN32StringDLTest_InsertRelative_TestD2Ev
FNL:55,71,82
FNA:55,1,_ZN33ArrayTest_BoundaryConditions_Test8TestBodyEv
FNA:55,1,_ZN33ArrayTest_BoundaryConditions_TestC2Ev
FNA:55,1,_ZN33ArrayTest_BoundaryConditions_TestD0Ev
FNA:55,1,_ZN33ArrayTest_BoundaryConditions_TestD2Ev
FNL:56,714,728
FNA:56,1,_ZN26StringDLTest_Deletion_Test8TestBodyEv
FNA:56,1,_ZN26StringDLTest_Deletion_TestC2Ev
FNA:56,1,_ZN26StringDLTest_Deletion_TestD0Ev
FNA:56,1,_ZN26StringDLTest_Deletion_TestD2Ev
FNL:57,731,740
FNA:57,1,_ZN32StringDLTest_RecursivePrint_Test8TestBodyEv
FNA:57,1,_ZN32StringDLTest_RecursivePrint_TestC2Ev
FNA:57,1,_ZN32StringDLTest_RecursivePrint_TestD0Ev
FNA:57,1,_ZN32StringDLTest_RecursivePrint_TestD2Ev
FNL:58,743,755
FNA:58,1,_ZN32StringOLTest_PushOperations_Test8TestBodyEv
FNA:58,1,_ZN32StringOLTest_PushOperations_TestC2Ev
FNA:58,1,_ZN32StringOLTest_PushOperations_TestD0Ev
FNA:58,1,_ZN32StringOLTest_PushOperations_TestD2Ev
FNL:59,758,769
FNA:59,1,_ZN35StringOLTest_RelativeInsertion_Test8TestBodyEv
FNA:59,1,_ZN35StringOLTest_RelativeInsertion_TestC2Ev
FNA:59,1,_ZN35StringOLTest_RelativeInsertion_TestD0Ev
FNA:59,1,_ZN35StringOLTest_RelativeInsertion_TestD2Ev
FNL:60,772,786
FNA:60,1,_ZN31StringOLTest_DeletionLogic_Test8TestBodyEv
FNA:60,1,_ZN31StringOLTest_DeletionLogic_TestC2Ev
FNA:60,1,_ZN31StringOLTest_DeletionLogic_TestD0Ev
FNA:60,1,_ZN31StringOLTest_DeletionLogic_TestD2Ev
FNL:61,789,803
FNA:61,1,_ZN34StringOLTest_AdvancedDeletion_Test8TestBodyEv
FNA:61,1,_ZN34StringOLTest_AdvancedDeletion_TestC2Ev
FNA:61,1,_ZN34StringOLTest_AdvancedDeletion_TestD0Ev
FNA:61,1,_ZN34StringOLTest_AdvancedDeletion_TestD2Ev
FNL:62,808,832
FNA:62,1,_ZN36ArraySerializationTest_BinaryIO_Test8TestBodyEv
FNA:62,1,_ZN36ArraySerializationTest_BinaryIO_TestC2Ev
FNA:62,1,_ZN36ArraySerializationTest_BinaryIO_TestD0Ev
FNA:62,1,_ZN36ArraySerializationTest_BinaryIO_TestD2Ev
FNL:63,836,883
FNA:63,1,_ZN45ArraySerializationTest_TextIO_Simulation_Test8TestBodyEv
FNA:63,1,_ZN45ArraySerializationTest_TextIO_Simulation_TestC2Ev
FNA:63,1,_ZN45ArraySerializationTest_TextIO_Simulation_TestD0Ev
FNA:63,1,_ZN45ArraySerializationTest_TextIO_Simulation_TestD2Ev
FNL:64,85,102
FNA:64,1,_ZN34ArrayTest_BinarySerialization_Test8TestBodyEv
FNA:64,1,_ZN34ArrayTest_BinarySerialization_TestC2Ev
FNA:64,1,_ZN34ArrayTest_BinarySerialization_TestD0Ev
FNA:64,1,_ZN34ArrayTest_BinarySerialization_TestD2Ev
FNL:65,885,925
FNA:65,1,_ZN47FullBinaryTreeSerialization_BinaryPreOrder_Test8TestBodyEv
FNA:65,1,_ZN47FullBinaryTreeSerialization_BinaryPreOrder_TestC2Ev
FNA:65,1,_ZN47FullBinaryTreeSerialization_BinaryPreOrder_TestD0Ev
FNA:65,1,_ZN47FullBinaryTreeSerialization_BinaryPreOrder_TestD2Ev
FNL:66,927,976
FNA:66,1,_ZN51FullBinaryTreeSerialization_TextBFS_Simulation_Test8TestBodyEv
FNA:66,1,_ZN51FullBinaryTreeSerialization_TextBFS_Simulation_TestC2Ev
FNA:66,1,_ZN51FullBinaryTreeSerialization_TextBFS_Simulation_TestD0Ev
FNA:66,1,_ZN51FullBinaryTreeSerialization_TextBFS_Simulation_TestD2Ev
FNL:67,978,1029
FNA:67,1,_ZN47HashTableSerialization_BinaryStream_Manual_Test8TestBodyEv
FNA:67,1,_ZN47HashTableSerialization_BinaryStream_Manual_TestC2Ev
FNA:67,1,_ZN47HashTableSerialization_BinaryStream_Manual_TestD0Ev
FNA:67,1,_ZN47HashTableSerialization_BinaryStream_Manual_TestD2Ev
FNF:68
FNH:68
DA:18,4
DA:19,1
DA:20,1
DA:21,1
DA:22,1
DA:25,4
DA:26,1
DA:27,2
DA:28,1
DA:30,1
DA:31,1
DA:32,1
DA:33,1
DA:36,4
DA:37,1
DA:39,2
DA:40,2
DA:41,1
DA:43,1
DA:44,1
DA:45,1
DA:46,1
DA:49,4
DA:50,1
DA:51,2
DA:52,1
DA:53,1
DA:54,1
DA:57,4
DA:58,1
DA:59,2
DA:60,2
DA:61,1
DA:63,1
DA:65,1
DA:66,1
DA:67,1
DA:68,1
DA:71,4
DA:72,1
DA:73,1
DA:76,1
DA:77,1
DA:80,1
DA:81,1
DA:82,1
DA:85,4
DA:86,1
DA:87,2
DA:88,3
DA:90,1
DA:91,1
DA:93,1
DA:94,1
DA:96,1
DA:97,1
DA:98,1
DA:101,1
DA:102,1
DA:104,4
DA:105,1
DA:109,1
DA:110,1
DA:111,1
DA:112,1
DA:116,2
DA:117,1
DA:119,1
DA:120,1
DA:121,2
DA:124,1
DA:125,1
DA:126,1
DA:127,1
DA:128,1
DA:131,4
DA:132,1
DA:133,2
DA:134,2
DA:135,4
DA:136,3
DA:138,3
DA:139,3
DA:140,3
DA:141,3
DA:142,3
DA:143,1
DA:146,4
DA:147,1
DA:148,2
DA:149,2
DA:150,2
DA:151,1
DA:153,1
DA:154,1
DA:155,1
DA:156,1
DA:157,2
DA:159,1
DA:160,1
DA:164,2
DA:165,1
DA:166,1
DA:169,2
DA:170,1
DA:172,3
DA:173,1
DA:175,4
DA:176,1
DA:177,1
DA:180,2
DA:181,1
DA:182,1
DA:183,3
DA:186,2
DA:187,1
DA:188,1
DA:190,3
DA:191,3
DA:194,2
DA:195,2
DA:196,1
DA:198,1
DA:200,3
DA:201,3
DA:202,3
DA:205,2
DA:206,1
DA:208,2
DA:209,2
DA:210,1
DA:212,1
DA:213,3
DA:214,1
DA:217,4
DA:218,1
DA:219,2
DA:220,1
DA:222,1
DA:223,1
DA:224,1
DA:225,1
DA:226,1
DA:229,4
DA:230,1
DA:231,1
DA:232,1
DA:234,1
DA:235,1
DA:236,3
DA:237,1
DA:240,4
DA:241,1
DA:242,1
DA:243,1
DA:244,1
DA:247,1
DA:248,1
DA:249,1
DA:250,1
DA:251,1
DA:252,1
DA:255,4
DA:256,1
DA:259,1
DA:261,1
DA:262,1
DA:264,1
DA:265,1
DA:266,1
DA:269,4
DA:270,1
DA:273,1
DA:276,1
DA:277,1
DA:281,1
DA:282,1
DA:285,1
DA:286,1
DA:287,1
DA:290,4
DA:291,1
DA:292,1
DA:294,1
DA:295,1
DA:296,1
DA:299,1
DA:301,1
DA:302,1
DA:303,1
DA:310,4
DA:311,2
DA:312,1
DA:313,1
DA:314,1
DA:315,1
DA:316,1
DA:318,4
DA:319,2
DA:320,2
DA:321,1
DA:322,1
DA:323,1
DA:324,1
DA:325,1
DA:327,4
DA:328,2
DA:329,1
DA:330,1
DA:332,1
DA:333,1
DA:335,4
DA:336,1
DA:337,41
DA:338,1
DA:339,1
DA:341,4
DA:342,1
DA:343,1
DA:344,1
DA:345,1
DA:352,4
DA:353,2
DA:354,1
DA:355,1
DA:356,1
DA:357,1
DA:359,4
DA:360,2
DA:361,2
DA:362,1
DA:363,1
DA:364,1
DA:365,1
DA:367,4
DA:368,2
DA:369,2
DA:371,1
DA:373,2
DA:375,1
DA:376,1
DA:377,1
DA:379,4
DA:380,1
DA:381,2
DA:382,2
DA:384,1
DA:386,1
DA:387,1
DA:388,1
DA:391,4
DA:392,1
DA:393,1
DA:397,1
DA:399,1
DA:400,1
DA:401,1
DA:402,1
DA:406,4
DA:407,1
DA:408,1
DA:409,1
DA:410,1
DA:411,1
DA:413,4
DA:415,1
DA:416,1
DA:417,1
DA:418,1
DA:419,1
DA:420,1
DA:422,2
DA:425,2
DA:426,1
DA:427,1
DA:428,1
DA:430,1
DA:431,1
DA:432,1
DA:433,1
DA:436,3
DA:437,1
DA:439,4
DA:442,1
DA:445,2
DA:449,1
DA:450,1
DA:452,4
DA:453,1
DA:454,2
DA:455,1
DA:456,1
DA:458,4
DA:460,1
DA:461,1
DA:463,1
DA:464,1
DA:465,1
DA:468,4
DA:469,1
DA:470,1
DA:471,1
DA:473,2
DA:474,2
DA:475,1
DA:477,1
DA:478,1
DA:481,1
DA:482,1
DA:483,1
DA:484,1
DA:487,4
DA:488,1
DA:489,2
DA:490,2
DA:491,1
DA:493,1
DA:494,1
DA:495,1
DA:498,1
DA:499,1
DA:500,2
DA:501,1
DA:502,1
DA:505,4
DA:506,1
DA:509,1
DA:510,1
DA:511,2
DA:512,1
DA:515,1
DA:516,1
DA:517,1
DA:518,1
DA:521,4
DA:522,1
DA:523,2
DA:524,1
DA:526,1
DA:527,1
DA:528,1
DA:529,1
DA:530,1
DA:533,4
DA:534,1
DA:536,1
DA:538,1
DA:539,1
DA:540,1
DA:542,1
DA:543,1
DA:544,1
DA:546,1
DA:547,1
DA:548,1
DA:549,1
DA:552,4
DA:553,1
DA:555,1
DA:556,1
DA:557,1
DA:559,1
DA:560,1
DA:561,1
DA:562,1
DA:563,1
DA:566,4
DA:567,1
DA:569,1
DA:570,1
DA:571,1
DA:572,1
DA:573,1
DA:575,1
DA:578,1
DA:579,1
DA:582,1
DA:583,1
DA:585,4
DA:586,1
DA:589,1
DA:590,1
DA:591,1
DA:592,1
DA:595,1
DA:596,1
DA:597,1
DA:598,2
DA:599,1
DA:602,1
DA:603,1
DA:604,1
DA:605,2
DA:609,1
DA:610,1
DA:611,1
DA:612,1
DA:613,1
DA:614,1
DA:617,4
DA:618,1
DA:619,1
DA:621,2
DA:622,2
DA:623,1
DA:625,1
DA:626,1
DA:629,1
DA:630,1
DA:631,1
DA:632,1
DA:633,1
DA:636,4
DA:637,1
DA:638,2
DA:639,2
DA:640,1
DA:642,1
DA:643,1
DA:646,1
DA:647,1
DA:648,2
DA:649,1
DA:650,1
DA:653,4
DA:654,1
DA:657,1
DA:660,1
DA:661,1
DA:662,2
DA:663,1
DA:664,1
DA:667,4
DA:668,1
DA:669,2
DA:670,1
DA:672,1
DA:673,1
DA:674,1
DA:675,1
DA:679,1
DA:682,4
DA:683,1
DA:684,2
DA:685,2
DA:686,1
DA:688,1
DA:689,1
DA:690,1
DA:692,1
DA:693,1
DA:696,4
DA:697,1
DA:698,2
DA:699,2
DA:701,2
DA:702,2
DA:704,2
DA:705,1
DA:707,1
DA:708,1
DA:709,1
DA:710,1
DA:711,1
DA:714,4
DA:715,1
DA:716,2
DA:717,2
DA:718,1
DA:720,1
DA:721,3
DA:723,1
DA:724,3
DA:726,1
DA:727,3
DA:728,1
DA:731,4
DA:732,1
DA:733,2
DA:734,1
DA:736,1
DA:737,1
DA:738,1
DA:739,1
DA:740,1
DA:743,4
DA:744,1
DA:745,2
DA:746,2
DA:747,1
DA:749,1
DA:750,1
DA:751,1
DA:754,1
DA:755,1
DA:758,4
DA:759,1
DA:760,2
DA:761,2
DA:763,4
DA:764,4
DA:766,1
DA:767,1
DA:768,1
DA:769,1
DA:772,4
DA:773,1
DA:774,2
DA:775,2
DA:776,1
DA:778,1
DA:779,3
DA:781,1
DA:782,3
DA:784,1
DA:785,3
DA:786,1
DA:789,4
DA:790,1
DA:791,2
DA:792,2
DA:793,2
DA:795,1
DA:796,1
DA:797,1
DA:799,1
DA:800,1
DA:801,1
DA:802,1
DA:803,1
DA:808,4
DA:809,1
DA:812,1
DA:813,2
DA:814,2
DA:815,1
DA:818,1
DA:821,1
DA:822,1
DA:825,1
DA:826,1
DA:827,1
DA:828,1
DA:831,1
DA:832,1
DA:836,4
DA:837,1
DA:841,1
DA:842,2
DA:843,1
DA:845,1
DA:846,1
DA:849,1
DA:850,3
DA:851,2
DA:853,1
DA:854,1
DA:855,1
DA:859,1
DA:860,1
DA:862,2
DA:863,1
DA:865,2
DA:866,2
DA:868,1
DA:870,2
DA:871,3
DA:872,2
DA:874,1
DA:877,1
DA:878,1
DA:879,1
DA:880,1
DA:882,1
DA:883,1
DA:885,4
DA:886,1
DA:890,1
DA:891,1
DA:892,1
DA:893,1
DA:895,1
DA:897,1
DA:898,1
DA:901,1
DA:902,4
DA:903,1
DA:904,1
DA:908,1
DA:909,1
DA:911,1
DA:913,4
DA:915,3
DA:916,3
DA:918,1
DA:920,1
DA:921,1
DA:922,1
DA:923,1
DA:924,1
DA:925,1
DA:927,4
DA:928,1
DA:929,1
DA:935,1
DA:936,1
DA:937,1
DA:941,1
DA:942,1
DA:946,1
DA:947,1
DA:948,1
DA:949,1
DA:950,1
DA:951,1
DA:954,1
DA:956,1
DA:957,1
DA:958,1
DA:960,1
DA:961,1
DA:962,1
DA:964,4
DA:965,3
DA:967,1
DA:968,1
DA:971,1
DA:972,1
DA:973,1
DA:974,1
DA:975,1
DA:976,1
DA:978,4
DA:979,1
DA:983,1
DA:984,1
DA:985,1
DA:987,3
DA:990,1
DA:991,1
DA:992,1
DA:995,1
DA:996,1
DA:997,1
DA:999,1
DA:1000,1
DA:1004,1
DA:1005,1
DA:1007,1
DA:1009,2
DA:1012,1
DA:1013,1
DA:1014,1
DA:1016,1
DA:1017,1
DA:1018,1
DA:1020,1
DA:1021,1
DA:1022,1
DA:1024,1
DA:1025,2
DA:1026,1
DA:1027,1
DA:1028,1
DA:1029,1
DA:1031,4
DA:1032,1
DA:1034,1
DA:1036,4
DA:1037,3
DA:1041,1
DA:1042,1
DA:1046,1
DA:1047,1
DA:1048,1
DA:1051,1
DA:1053,1
DA:1054,1
DA:1055,1
DA:1057,1
DA:1058,1
DA:1059,1
DA:1061,3
DA:1062,2
DA:1064,1
DA:1065,1
DA:1068,1
DA:1069,2
DA:1070,1
DA:1071,2
DA:1072,1
DA:1074,1
DA:1075,1
DA:1077,4
DA:1078,1
DA:1082,1
DA:1083,1
DA:1084,2
DA:1085,1
DA:1087,1
DA:1088,1
DA:1090,3
DA:1091,2
DA:1092,2
DA:1093,2
DA:1094,2
DA:1095,2
DA:1096,1
DA:1097,1
DA:1101,1
DA:1102,1
DA:1104,1
DA:1106,3
DA:1108,2
DA:1109,2
DA:1110,2
DA:1111,2
DA:1112,2
DA:1113,1
DA:1116,1
DA:1117,1
DA:1118,1
DA:1119,1
DA:1121,1
DA:1122,1
DA:1124,4
DA:1125,1
DA:1126,1
DA:1127,2
DA:1128,1
DA:1132,1
DA:1133,1
DA:1135,1
DA:1136,1
DA:1137,1
DA:1140,1
DA:1141,1
DA:1142,1
DA:1146,1
DA:1147,1
DA:1149,1
DA:1150,1
DA:1151,1
DA:1154,1
DA:1156,1
DA:1157,1
DA:1158,1
DA:1160,1
DA:1161,1
DA:1162,1
DA:1164,3
DA:1165,2
DA:1167,1
DA:1168,1
DA:1171,1
DA:1172,1
DA:1173,1
DA:1175,1
DA:1176,1
DA:1178,4
DA:1179,1
DA:1183,1
DA:1184,1
DA:1185,1
DA:1186,1
DA:1188,1
DA:1189,1
DA:1192,1
DA:1194,3
DA:1195,2
DA:1197,1
DA:1198,1
DA:1202,1
DA:1203,1
DA:1205,1
DA:1207,3
DA:1209,2
DA:1210,2
DA:1212,1
DA:1214,1
DA:1215,1
DA:1216,1
DA:1217,1
DA:1219,1
DA:1220,1
DA:1223,4
DA:1224,1
DA:1225,1
DA:1227,1
DA:1228,1
DA:1229,1
DA:1233,1
DA:1234,1
DA:1237,1
DA:1238,4
DA:1239,3
DA:1241,1
DA:1242,1
DA:1243,1
DA:1246,1
DA:1248,1
DA:1249,1
DA:1250,1
DA:1252,1
DA:1253,1
DA:1254,1
DA:1256,4
DA:1257,3
DA:1259,1
DA:1260,1
DA:1263,1
DA:1264,1
DA:1265,1
DA:1266,1
DA:1268,1
DA:1269,1
DA:1271,4
DA:1272,1
DA:1276,1
DA:1277,1
DA:1278,2
DA:1279,1
DA:1281,1
DA:1282,1
DA:1285,3
DA:1286,2
DA:1287,2
DA:1288,2
DA:1289,2
DA:1290,2
DA:1291,1
DA:1292,1
DA:1296,1
DA:1297,1
DA:1299,1
DA:1301,3
DA:1303,2
DA:1304,2
DA:1305,2
DA:1306,2
DA:1307,2
DA:1308,1
DA:1311,1
DA:1312,1
DA:1313,1
DA:1315,1
DA:1316,1
DA:1318,4
DA:1319,1
DA:1320,1
DA:1321,2
DA:1322,1
DA:1326,1
DA:1327,1
DA:1329,1
DA:1330,1
DA:1331,1
DA:1334,1
DA:1335,1
DA:1336,1
DA:1340,1
DA:1342,1
DA:1343,1
DA:1344,1
DA:1347,1
DA:1349,1
DA:1350,1
DA:1351,1
DA:1352,1
DA:1353,1
DA:1354,1
DA:1355,3
DA:1356,1
DA:1357,1
DA:1360,1
DA:1361,1
DA:1362,1
DA:1364,4
DA:1365,1
DA:1369,1
DA:1370,1
DA:1371,2
DA:1372,1
DA:1375,1
DA:1376,1
DA:1379,5
DA:1380,3
DA:1381,2
DA:1382,2
DA:1383,2
DA:1385,1
DA:1386,4
DA:1390,1
DA:1391,1
DA:1393,1
DA:1395,3
DA:1397,2
DA:1398,2
DA:1399,2
DA:1400,2
DA:1401,2
DA:1402,1
DA:1405,1
DA:1406,1
DA:1407,1
DA:1408,1
DA:1410,1
DA:1411,1
DA:1413,4
DA:1414,1
DA:1415,1
DA:1417,2
DA:1418,2
DA:1419,1
DA:1423,1
DA:1424,1
DA:1427,1
DA:1428,1
DA:1429,1
DA:1431,1
DA:1432,1
DA:1434,1
DA:1435,1
DA:1436,1
DA:1439,1
DA:1441,1
DA:1442,1
DA:1443,1
DA:1445,1
DA:1446,1
DA:1447,1
DA:1449,4
DA:1450,3
DA:1452,1
DA:1453,1
DA:1456,1
DA:1457,1
DA:1460,1
DA:1462,1
DA:1464,1
DA:1465,1
DA:1467,4
DA:1468,1
DA:1472,1
DA:1473,1
DA:1474,1
DA:1476,2
DA:1477,1
DA:1479,5
DA:1480,2
DA:1481,2
DA:1482,2
DA:1483,3
DA:1484,1
DA:1485,1
DA:1489,1
DA:1490,1
DA:1492,1
DA:1494,3
DA:1496,2
DA:1497,2
DA:1498,2
DA:1499,2
DA:1500,2
DA:1501,1
DA:1503,3
DA:1504,3
DA:1505,1
DA:1507,1
DA:1508,1
DA:1510,4
DA:1511,1
DA:1512,1
DA:1514,2
DA:1515,2
DA:1516,1
DA:1520,1
DA:1521,1
DA:1524,1
DA:1525,1
DA:1526,1
DA:1528,1
DA:1529,1
DA:1530,1
DA:1533,1
DA:1535,1
DA:1536,1
DA:1537,1
DA:1539,1
DA:1540,1
DA:1541,1
DA:1543,4
DA:1544,3
DA:1546,1
DA:1547,1
DA:1551,1
DA:1552,1
DA:1553,1
DA:1556,3
DA:1557,3
DA:1559,1
DA:1560,1
LF:1002
LH:1002
end_of_record
